target datalayout = "e-m:e-p270:32:32-p271:32:32-p272:64:64-i64:64-i128:128-f80:128-n8:16:32:64-S128"
target triple = "x86_64-pc-linux-gnu"

%struct.commit = type { %struct.object, i64, ptr, ptr, i32 }
%struct.object = type { i32, %struct.object_id }
%struct.object_id = type { [32 x i8], i32 }
%struct.commit_list = type { ptr, ptr }

; Function Attrs: nounwind uwtable
define dso_local ptr @pop_commit(ptr noundef %0) #0 {
  %2 = alloca ptr, align 8
  %3 = alloca ptr, align 8
  %4 = alloca ptr, align 8
  store ptr %0, ptr %2, align 8, !tbaa !99
  call void @llvm.lifetime.start.p0(i64 8, ptr %3) #11
  %5 = load ptr, ptr %2, align 8, !tbaa !99
  %6 = load ptr, ptr %5, align 8, !tbaa !58
  store ptr %6, ptr %3, align 8, !tbaa !58
  call void @llvm.lifetime.start.p0(i64 8, ptr %4) #11
  %7 = load ptr, ptr %3, align 8, !tbaa !58
  %8 = icmp ne ptr %7, null
  br i1 %8, label %9, label %13

9:                                                ; preds = %1
  %10 = load ptr, ptr %3, align 8, !tbaa !58
  %11 = getelementptr inbounds nuw %struct.commit_list, ptr %10, i32 0, i32 0
  %12 = load ptr, ptr %11, align 8, !tbaa !105
  br label %14

13:                                               ; preds = %1
  br label %14

14:                                               ; preds = %13, %9
  %15 = phi ptr [ %12, %9 ], [ null, %13 ]
  store ptr %15, ptr %4, align 8, !tbaa !17
  %16 = load ptr, ptr %3, align 8, !tbaa !58
  %17 = icmp ne ptr %16, null
  br i1 %17, label %18, label %24

18:                                               ; preds = %14
  %19 = load ptr, ptr %3, align 8, !tbaa !58
  %20 = getelementptr inbounds nuw %struct.commit_list, ptr %19, i32 0, i32 1
  %21 = load ptr, ptr %20, align 8, !tbaa !107
  %22 = load ptr, ptr %2, align 8, !tbaa !99
  store ptr %21, ptr %22, align 8, !tbaa !58
  %23 = load ptr, ptr %3, align 8, !tbaa !58
  call void @free(ptr noundef %23) #11
  br label %24

24:                                               ; preds = %18, %14
  %25 = load ptr, ptr %4, align 8, !tbaa !17
  call void @llvm.lifetime.end.p0(i64 8, ptr %4) #11
  call void @llvm.lifetime.end.p0(i64 8, ptr %3) #11
  ret ptr %25
}

; Function Attrs: nounwind uwtable
define dso_local void @free_commit_list(ptr noundef %0) #0 {
  %2 = alloca ptr, align 8
  store ptr %0, ptr %2, align 8, !tbaa !58
  br label %3

3:                                                ; preds = %6, %1
  %4 = load ptr, ptr %2, align 8, !tbaa !58
  %5 = icmp ne ptr %4, null
  br i1 %5, label %6, label %8

6:                                                ; preds = %3
  %7 = call ptr @pop_commit(ptr noundef %2)
  br label %3, !llvm.loop !59

8:                                                ; preds = %3
  ret void
}

; Function Attrs: nounwind uwtable
define dso_local ptr @lookup_commit(ptr noundef %0, ptr noundef %1) #0 {
  %3 = alloca ptr, align 8
  %4 = alloca ptr, align 8
  %5 = alloca ptr, align 8
  %6 = alloca ptr, align 8
  %7 = alloca i32, align 4
  store ptr %0, ptr %4, align 8, !tbaa !4
  store ptr %1, ptr %5, align 8, !tbaa !9
  call void @llvm.lifetime.start.p0(i64 8, ptr %6) #11
  %8 = load ptr, ptr %4, align 8, !tbaa !4
  %9 = load ptr, ptr %5, align 8, !tbaa !9
  %10 = call ptr @lookup_object(ptr noundef %8, ptr noundef %9)
  store ptr %10, ptr %6, align 8, !tbaa !13
  %11 = load ptr, ptr %6, align 8, !tbaa !13
  %12 = icmp ne ptr %11, null
  br i1 %12, label %19, label %13

13:                                               ; preds = %2
  %14 = load ptr, ptr %4, align 8, !tbaa !4
  %15 = load ptr, ptr %5, align 8, !tbaa !9
  %16 = load ptr, ptr %4, align 8, !tbaa !4
  %17 = call ptr @alloc_commit_node(ptr noundef %16)
  %18 = call ptr @create_object(ptr noundef %14, ptr noundef %15, ptr noundef %17)
  store ptr %18, ptr %3, align 8
  store i32 1, ptr %7, align 4
  br label %22

19:                                               ; preds = %2
  %20 = load ptr, ptr %6, align 8, !tbaa !13
  %21 = call ptr @object_as_type(ptr noundef %20, i32 noundef 1, i32 noundef 0)
  store ptr %21, ptr %3, align 8
  store i32 1, ptr %7, align 4
  br label %22

22:                                               ; preds = %19, %13
  call void @llvm.lifetime.end.p0(i64 8, ptr %6) #11
  %23 = load ptr, ptr %3, align 8
  ret ptr %23
}

; Function Attrs: nounwind uwtable
define dso_local void @unparse_commit(ptr noundef %0, ptr noundef %1) #0 {
  %3 = alloca ptr, align 8
  %4 = alloca ptr, align 8
  %5 = alloca ptr, align 8
  %6 = alloca i32, align 4
  store ptr %0, ptr %3, align 8, !tbaa !4
  store ptr %1, ptr %4, align 8, !tbaa !9
  call void @llvm.lifetime.start.p0(i64 8, ptr %5) #11
  %7 = load ptr, ptr %3, align 8, !tbaa !4
  %8 = load ptr, ptr %4, align 8, !tbaa !9
  %9 = call ptr @lookup_commit(ptr noundef %7, ptr noundef %8)
  store ptr %9, ptr %5, align 8, !tbaa !17
  %10 = load ptr, ptr %5, align 8, !tbaa !17
  %11 = getelementptr inbounds nuw %struct.commit, ptr %10, i32 0, i32 0
  %12 = load i32, ptr %11, align 8
  %13 = and i32 %12, 1
  %14 = icmp ne i32 %13, 0
  br i1 %14, label %16, label %15

15:                                               ; preds = %2
  store i32 1, ptr %6, align 4
  br label %27

16:                                               ; preds = %2
  %17 = load ptr, ptr %5, align 8, !tbaa !17
  %18 = getelementptr inbounds nuw %struct.commit, ptr %17, i32 0, i32 2
  %19 = load ptr, ptr %18, align 8, !tbaa !52
  call void @free_commit_list(ptr noundef %19)
  %20 = load ptr, ptr %5, align 8, !tbaa !17
  %21 = getelementptr inbounds nuw %struct.commit, ptr %20, i32 0, i32 2
  store ptr null, ptr %21, align 8, !tbaa !52
  %22 = load ptr, ptr %5, align 8, !tbaa !17
  %23 = getelementptr inbounds nuw %struct.commit, ptr %22, i32 0, i32 0
  %24 = load i32, ptr %23, align 8
  %25 = and i32 %24, -2
  %26 = or i32 %25, 0
  store i32 %26, ptr %23, align 8
  store i32 0, ptr %6, align 4
  br label %27

27:                                               ; preds = %16, %15
  call void @llvm.lifetime.end.p0(i64 8, ptr %5) #11
  %28 = load i32, ptr %6, align 4
  switch i32 %28, label %30 [
    i32 0, label %29
    i32 1, label %29
  ]

29:                                               ; preds = %27, %27
  ret void

30:                                               ; preds = %27
  unreachable
}