; Function Attrs: nounwind uwtable
define dso_local void @unparse_commit(ptr noundef %0, ptr noundef %1) local_unnamed_addr #0 {
  %3 = tail call ptr @lookup_object(ptr noundef %0, ptr noundef %1) #24
  %.not.i = icmp eq ptr %3, null
  br i1 %.not.i, label %4, label %7

4:                                                ; preds = %2
  %5 = tail call ptr @alloc_commit_node(ptr noundef %0) #24
  %6 = tail call ptr @create_object(ptr noundef %0, ptr noundef %1, ptr noundef %5) #24
  br label %lookup_commit.exit

7:                                                ; preds = %2
  %8 = tail call ptr @object_as_type(ptr noundef nonnull %3, i32 noundef 1, i32 noundef 0) #24
  br label %lookup_commit.exit

lookup_commit.exit:                               ; preds = %4, %7
  %.0.i = phi ptr [ %8, %7 ], [ %6, %4 ]
  %9 = load i32, ptr %.0.i, align 8
  %10 = and i32 %9, 1
  %.not = icmp eq i32 %10, 0
  br i1 %.not, label %18, label %11

11:                                               ; preds = %lookup_commit.exit
  %12 = getelementptr inbounds nuw i8, ptr %.0.i, i64 48
  %13 = load ptr, ptr %12, align 8, !tbaa !42
  %.not2.i = icmp eq ptr %13, null
  br i1 %.not2.i, label %free_commit_list.exit, label %pop_commit.exit.i

pop_commit.exit.i:                                ; preds = %11, %pop_commit.exit.i
  %.03.i = phi ptr [ %15, %pop_commit.exit.i ], [ %13, %11 ]
  %14 = getelementptr inbounds nuw i8, ptr %.03.i, i64 8
  %15 = load ptr, ptr %14, align 8, !tbaa !48
  tail call void @free(ptr noundef nonnull %.03.i) #24
  %.not.i6 = icmp eq ptr %15, null
  br i1 %.not.i6, label %free_commit_list.exit.loopexit, label %pop_commit.exit.i, !llvm.loop !51

free_commit_list.exit.loopexit:                   ; preds = %pop_commit.exit.i
  %.pre = load i32, ptr %.0.i, align 8
  br label %free_commit_list.exit

free_commit_list.exit:                            ; preds = %free_commit_list.exit.loopexit, %11
  %16 = phi i32 [ %.pre, %free_commit_list.exit.loopexit ], [ %9, %11 ]
  store ptr null, ptr %12, align 8, !tbaa !42
  %17 = and i32 %16, -2
  store i32 %17, ptr %.0.i, align 8
  br label %18

18:                                               ; preds = %lookup_commit.exit, %free_commit_list.exit
  ret void
}